                            * = $1000
1000   78         L1000     SEI
1001   A9 75                LDA #$75
1003   8D 9B 18             STA $189B
1006   A9 10                LDA #$10
1008   8D 98 18             STA $1898
100B   A9 89                LDA #$89
100D   8D 9C 18             STA $189C
1010   A9 10                LDA #$10
1012   8D 99 18             STA $1899
1015   A9 9D                LDA #$9D
1017   8D 9D 18             STA $189D
101A   A9 10                LDA #$10
101C   8D 9A 18             STA $189A
101F   A9 B1                LDA #$B1
1021   85 80                STA $80
1023   A9 10                LDA #$10
1025   85 81                STA $81
1027   A9 AF                LDA #$AF
1029   85 82                STA $82
102B   A9 11                LDA #$11
102D   85 83                STA $83
102F   A9 7C                LDA #$7C
1031   85 84                STA $84
1033   A9 12                LDA #$12
1035   85 85                STA $85
1037   AD 6C 18   L1037     LDA $186C
103A   8D 18 D4             STA $D418
103D   AD 6D 18             LDA $186D
1040   8D 17 D4             STA $D417
1043   AD 6E 18             LDA $186E
1046   8D 16 D4             STA $D416
1049   AD 6F 18             LDA $186F
104C   8D 15 D4             STA $D415
104F   A9 07                LDA #$07
1051   8D 85 18             STA $1885
1054   8D 86 18             STA $1886
1057   A9 02                LDA #$02
1059   8D 89 18             STA $1889
105C   8D 8A 18             STA $188A
105F   8D 8B 18             STA $188B
1062   8D 9E 18             STA $189E
1065   8D 9F 18             STA $189F
1068   8D A0 18             STA $18A0
106B   A9 04                LDA #$04
106D   8D 87 18             STA $1887
1070   8D 88 18   L1070     STA $1888
1073   EA                   NOP
1074   60         L1074     RTS
1075   B1 10                LDA ($10),Y
1077   F2                   ???
1078   10 F2                BPL L106C
107A   10 F2                BPL L106E
107C   10 F2                BPL L1070
107E   10 F2                BPL L1072
1080   10 F2                BPL L1074
1082   10 F2                BPL L1076
1084   10 00                BPL L1086
1086   00         L1086     BRK
1087   00                   BRK
1088   00                   BRK
1089   AF                   ???
108A   11 D2                ORA ($D2),Y
108C   11 D2                ORA ($D2),Y
108E   11 D2                ORA ($D2),Y
1090   11 D2                ORA ($D2),Y
1092   11 D2                ORA ($D2),Y
1094   11 D2                ORA ($D2),Y
1096   11 D2                ORA ($D2),Y
1098   11 00                ORA ($00),Y
109A   00                   BRK
109B   00                   BRK
109C   00                   BRK
109D   7C                   ???
109E   12                   ???
109F   99 12 99             STA $9912,Y
10A2   12                   ???
10A3   99 12 99             STA $9912,Y
10A6   12                   ???
10A7   99 12 99             STA $9912,Y
10AA   12                   ???
10AB   99 12 00             STA $0012,Y
10AE   00                   BRK
10AF   00                   BRK
10B0   00                   BRK
10B1   D4                   ???
10B2   D5 D6                CMP $D6,X
10B4   D7                   ???
10B5   D8                   CLD
10B6   D9 DA 02             CMP $02DA,Y
10B9   C8                   INY
10BA   0A                   ASL A
10BB   C9 02                CMP #$02
10BD   CA                   DEX
10BE   48                   PHA
10BF   CB                   ???
10C0   C8                   INY
10C1   CC 10 D1             CPY $D110
10C4   01 01                ORA ($01,X)
10C6   00                   BRK
10C7   64                   ???
10C8   04                   ???
10C9   61 04                ADC ($04,X)
10CB   63                   ???
10CC   04                   ???
10CD   64                   ???
10CE   04                   ???
10CF   61 04                ADC ($04,X)
10D1   5B                   ???
10D2   04                   ???
10D3   63                   ???
10D4   04                   ???
10D5   64                   ???
10D6   04                   ???
10D7   5B                   ???
10D8   04                   ???
10D9   59 04 5B             EOR $5B04,Y
10DC   04                   ???
10DD   61 04                ADC ($04,X)
10DF   59 04 5B             EOR $5B04,Y
10E2   04                   ???
10E3   59 04 58             EOR $5804,Y
10E6   04                   ???
10E7   56 20                LSR $20,X
10E9   53                   ???
10EA   08                   PHP
10EB   4B                   ???
10EC   08                   PHP
10ED   51 20                EOR ($20),Y
10EF   53                   ???
10F0   00                   BRK
10F1   00                   BRK
10F2   C9 02                CMP #$02
10F4   D1 01                CMP ($01),Y
10F6   01 00                ORA ($00,X)
10F8   C8                   INY
10F9   08                   PHP
10FA   58                   CLI
10FB   08                   PHP
10FC   4B                   ???
10FD   08                   PHP
10FE   4B                   ???
10FF   08                   PHP
1100   58                   CLI
1101   08                   PHP
1102   4B                   ???
1103   08                   PHP
1104   4B                   ???
1105   04                   ???
1106   49 04                EOR #$04
1108   4B                   ???
1109   04                   ???
110A   51 04                EOR ($04),Y
110C   53                   ???
110D   04                   ???
110E   54                   ???
110F   04                   ???
1110   56 04                LSR $04,X
1112   58                   CLI
1113   04                   ???
1114   4B                   ???
1115   04                   ???
1116   51 04                EOR ($04),Y
1118   53                   ???
1119   04                   ???
111A   54                   ???
111B   04                   ???
111C   56 08                LSR $08,X
111E   58                   CLI
111F   08                   PHP
1120   4B                   ???
1121   08                   PHP
1122   4B                   ???
1123   08                   PHP
1124   58                   CLI
1125   08                   PHP
1126   4B                   ???
1127   08                   PHP
1128   4B                   ???
1129   04                   ???
112A   51 04                EOR ($04),Y
112C   61 04                ADC ($04,X)
112E   5B                   ???
112F   04                   ???
1130   5A                   ???
1131   04                   ???
1132   59 04 58             EOR $5804,Y
1135   10 56                BPL L118D
1137   08                   PHP
1138   57                   ???
1139   08                   PHP
113A   58                   CLI
113B   08                   PHP
113C   4C 08 4C             JMP $4C08
113F   08                   PHP
1140   58                   CLI
1141   08                   PHP
1142   4C 08 4C             JMP $4C08
1145   04                   ???
1146   56 04                LSR $04,X
1148   54                   ???
1149   04                   ???
114A   56 04                LSR $04,X
114C   59 04 58             EOR $5804,Y
114F   04                   ???
1150   56 04                LSR $04,X
1152   53                   ???
1153   04                   ???
1154   4B                   ???
1155   04                   ???
1156   51 04                EOR ($04),Y
1158   53                   ???
1159   04                   ???
115A   54                   ???
115B   04                   ???
115C   56 08                LSR $08,X
115E   59 08 51             EOR $5108,Y
1161   08                   PHP
1162   51 08                EOR ($08),Y
1164   59 08 51             EOR $5108,Y
1167   08                   PHP
1168   51 08                EOR ($08),Y
116A   59 08 51             EOR $5108,Y
116D   08                   PHP
116E   51 08                EOR ($08),Y
1170   61 08                ADC ($08,X)
1172   51 08                EOR ($08),Y
1174   51 04                EOR ($04),Y
1176   63                   ???
1177   04                   ???
1178   5B                   ???
1179   04                   ???
117A   56 04                LSR $04,X
117C   53                   ???
117D   04                   ???
117E   5B                   ???
117F   04                   ???
1180   56 04                LSR $04,X
1182   53                   ???
1183   04                   ???
1184   4B                   ???
1185   04                   ???
1186   56 04                LSR $04,X
1188   53                   ???
1189   04                   ???
118A   4B                   ???
118B   04                   ???
118C   46 04                LSR $04
118E   4B                   ???
118F   04                   ???
1190   51 04                EOR ($04),Y
1192   53                   ???
1193   04                   ???
1194   51 04                EOR ($04),Y
1196   53                   ???
1197   04                   ???
1198   54                   ???
1199   04                   ???
119A   53                   ???
119B   04                   ???
119C   54                   ???
119D   04                   ???
119E   56 04                LSR $04,X
11A0   54                   ???
11A1   04                   ???
11A2   56 04                LSR $04,X
11A4   58                   CLI
11A5   04                   ???
11A6   56 04                LSR $04,X
11A8   58                   CLI
11A9   04                   ???
11AA   59 0C 59             EOR $590C,Y
11AD   00                   BRK
11AE   00                   BRK
11AF   D4                   ???
11B0   D5 D6                CMP $D6,X
11B2   D7                   ???
11B3   D8                   CLD
11B4   D9 DA 02             CMP $02DA,Y
11B7   CA                   DEX
11B8   48                   PHA
11B9   CB                   ???
11BA   88                   DEY
11BB   CC 10 D1             CPY $D110
11BE   01 01                ORA ($01,X)
11C0   00                   BRK
11C1   64                   ???
11C2   10 59                BPL L121D
11C4   10 58                BPL L121E
11C6   10 56                BPL L121E
11C8   08                   PHP
11C9   56 08                LSR $08,X
11CB   4B                   ???
11CC   20 4B 30             JSR $304B
11CF   00                   BRK
11D0   00                   BRK
11D1   00                   BRK
11D2   D1 01                CMP ($01),Y
11D4   01 00                ORA ($00,X)
11D6   64                   ???
11D7   08                   PHP
11D8   54                   ???
11D9   08                   PHP
11DA   48                   PHA
11DB   08                   PHP
11DC   48                   PHA
11DD   08                   PHP
11DE   54                   ???
11DF   08                   PHP
11E0   48                   PHA
11E1   08                   PHP
11E2   48                   PHA
11E3   04                   ???
11E4   46 04                LSR $04
11E6   48                   PHA
11E7   04                   ???
11E8   49 04                EOR #$04
11EA   4B                   ???
11EB   04                   ???
11EC   51 04                EOR ($04),Y
11EE   53                   ???
11EF   04                   ???
11F0   54                   ???
11F1   04                   ???
11F2   48                   PHA
11F3   04                   ???
11F4   49 04                EOR #$04
11F6   4B                   ???
11F7   04                   ???
11F8   51 04                EOR ($04),Y
11FA   53                   ???
11FB   08                   PHP
11FC   54                   ???
11FD   04                   ???
11FE   44                   ???
11FF   04                   ???
1200   46 08                LSR $08
1202   48                   PHA
1203   08                   PHP
1204   54                   ???
1205   04                   ???
1206   44                   ???
1207   04                   ???
1208   46 08                LSR $08
120A   48                   PHA
120B   04                   ???
120C   49 04                EOR #$04
120E   59 04 58             EOR $5804,Y
1211   04                   ???
1212   57                   ???
1213   04                   ???
1214   56 04                LSR $04,X
1216   54                   ???
1217   10 53                BPL L126C
1219   08                   PHP
121A   53                   ???
121B   08                   PHP
121C   4C 04 43             JMP $4304
121F   04                   ???
1220   44                   ???
1221   08                   PHP
1222   46 08                LSR $08
1224   4C 04 43             JMP $4304
1227   04                   ???
1228   44                   ???
1229   08                   PHP
122A   46 04                LSR $04
122C   53                   ???
122D   04                   ???
122E   51 04                EOR ($04),Y
1230   53                   ???
1231   04                   ???
1232   56 04                LSR $04,X
1234   54                   ???
1235   04                   ???
1236   53                   ???
1237   04                   ???
1238   4B                   ???
1239   04                   ???
123A   46 04                LSR $04
123C   49 04                EOR #$04
123E   4B                   ???
123F   04                   ???
1240   51 04                EOR ($04),Y
1242   53                   ???
1243   08                   PHP
1244   51 08                EOR ($08),Y
1246   49 08                EOR #$08
1248   49 08                EOR #$08
124A   51 08                EOR ($08),Y
124C   49 08                EOR #$08
124E   49 08                EOR #$08
1250   51 08                EOR ($08),Y
1252   49 08                EOR #$08
1254   49 08                EOR #$08
1256   56 08                LSR $08,X
1258   49 08                EOR #$08
125A   49 10                EOR #$10
125C   00                   BRK
125D   04                   ???
125E   56 04                LSR $04,X
1260   53                   ???
1261   04                   ???
1262   4B                   ???
1263   04                   ???
1264   46 04                LSR $04
1266   53                   ???
1267   04                   ???
1268   4B                   ???
1269   04                   ???
126A   46 04                LSR $04
126C   43         L126C     ???
126D   0C                   ???
126E   46 0C                LSR $0C
1270   49 0C                EOR #$0C
1272   4B                   ???
1273   0C                   ???
1274   51 0C                EOR ($0C),Y
1276   53                   ???
1277   0C                   ???
1278   56 00                LSR $00,X
127A   00                   BRK
127B   00                   BRK
127C   D4                   ???
127D   D5 D6                CMP $D6,X
127F   D7                   ???
1280   D8                   CLD
1281   D9 DA 02             CMP $02DA,Y
1284   CA                   DEX
1285   48                   PHA
1286   CB                   ???
1287   28                   PLP
1288   CC 10 10             CPY $1010
128B   36 10                ROL $10,X
128D   34                   ???
128E   10 33                BPL L12C3
1290   30 36                BMI L12C8
1292   10 2B                BPL L12BF
1294   20 2B 00             JSR $002B
1297   00                   BRK
1298   00                   BRK
1299   08                   PHP
129A   34                   ???
129B   08                   PHP
129C   3B                   ???
129D   08                   PHP
129E   3B                   ???
129F   08                   PHP
12A0   34                   ???
12A1   08                   PHP
12A2   3B                   ???
12A3   08                   PHP
12A4   3B                   ???
12A5   08                   PHP
12A6   36 08                ROL $08,X
12A8   41 08                EOR ($08,X)
12AA   41 08                EOR ($08,X)
12AC   34                   ???
12AD   08                   PHP
12AE   3B                   ???
12AF   08                   PHP
12B0   3B                   ???
12B1   08                   PHP
12B2   34                   ???
12B3   08                   PHP
12B4   3B                   ???
12B5   08                   PHP
12B6   3B                   ???
12B7   08                   PHP
12B8   34                   ???
12B9   08                   PHP
12BA   3B                   ???
12BB   08                   PHP
12BC   3B                   ???
12BD   08                   PHP
12BE   36 08                ROL $08,X
12C0   41 08                EOR ($08,X)
12C2   41 08                EOR ($08,X)
12C4   2B                   ???
12C5   08                   PHP
12C6   36 08                ROL $08,X
12C8   36 08      L12C8     ROL $08,X
12CA   38                   SEC
12CB   08                   PHP
12CC   43                   ???
12CD   08                   PHP
12CE   43                   ???
12CF   08                   PHP
12D0   38                   SEC
12D1   08                   PHP
12D2   43                   ???
12D3   08                   PHP
12D4   43                   ???
12D5   08                   PHP
12D6   39 08 44             AND $4408,Y
12D9   08                   PHP
12DA   44                   ???
12DB   08                   PHP
12DC   2B                   ???
12DD   08                   PHP
12DE   36 08                ROL $08,X
12E0   36 08                ROL $08,X
12E2   31 08                AND ($08),Y
12E4   39 08 39             AND $3908,Y
12E7   08                   PHP
12E8   32                   ???
12E9   08                   PHP
12EA   39 08 39             AND $3908,Y
12ED   08                   PHP
12EE   33                   ???
12EF   08                   PHP
12F0   39 08 39             AND $3908,Y
12F3   08                   PHP
12F4   33                   ???
12F5   08                   PHP
12F6   39 08 39             AND $3908,Y
12F9   08                   PHP
12FA   36 08                ROL $08,X
12FC   3B                   ???
12FD   08                   PHP
12FE   3B                   ???
12FF   08                   PHP
1300   36 08                ROL $08,X
1302   3B                   ???
1303   08                   PHP
1304   3B                   ???
1305   0C                   ???
1306   3B                   ???
1307   0C                   ???
1308   3B                   ???
1309   0C                   ???
130A   3B                   ???
130B   0C                   ???
130C   3B                   ???
130D   0C                   ???
130E   3B                   ???
130F   0C                   ???
1310   3B                   ???
1311   00                   BRK
1312   00                   BRK
1313   FF                   ???
1314   78                   SEI
1315   A9 4E                LDA #$4E
1317   8D 9B 18             STA $189B
131A   A9 13                LDA #$13
131C   8D 98 18             STA $1898
131F   A9 82                LDA #$82
1321   8D 9C 18             STA $189C
1324   A9 13                LDA #$13
1326   8D 99 18             STA $1899
1329   A9 B8                LDA #$B8
132B   8D 9D 18             STA $189D
132E   A9 13                LDA #$13
1330   8D 9A 18             STA $189A
1333   A9 F2                LDA #$F2
1335   85 80                STA $80
1337   A9 13                LDA #$13
1339   85 81                STA $81
133B   A9 39                LDA #$39
133D   85 82                STA $82
133F   A9 15                LDA #$15
1341   85 83                STA $83
1343   A9 4B                LDA #$4B
1345   85 84                STA $84
1347   A9 16                LDA #$16
1349   85 85                STA $85
134B   4C 37 10             JMP L1037
134E   F2                   ???
134F   13                   ???
1350   72                   ???
1351   14                   ???
1352   6C 14 6C             JMP ($6C14)
1355   14                   ???
1356   89                   ???
1357   14                   ???
1358   89                   ???
1359   14                   ???
135A   B6 14                LDX $14,Y
135C   B6 14                LDX $14,Y
135E   89                   ???
135F   14                   ???
1360   6C 14 D4             JMP ($D414)
1363   14                   ???
1364   D4                   ???
1365   14                   ???
1366   6C 14 D4             JMP ($D414)
1369   14                   ???
136A   D4                   ???
136B   14                   ???
136C   76 14                ROR $14,X
136E   89                   ???
136F   14                   ???
1370   89                   ???
1371   14                   ???
1372   B6 14                LDX $14,Y
1374   B6 14                LDX $14,Y
1376   89                   ???
1377   14                   ???
1378   23                   ???
1379   15 D4                ORA $D4,X
137B   14                   ???
137C   D4                   ???
137D   14                   ???
137E   00                   BRK
137F   00                   BRK
1380   00                   BRK
1381   00                   BRK
1382   39 15 AD             AND $AD15,Y
1385   15 B1                ORA $B1,X
1387   15 B1                ORA $B1,X
1389   15 B1                ORA $B1,X
138B   15 B1                ORA $B1,X
138D   15 B1                ORA $B1,X
138F   15 B1                ORA $B1,X
1391   15 AD                ORA $AD,X
1393   15 DB                ORA $DB,X
1395   15 DB                ORA $DB,X
1397   15 1D                ORA $1D,X
1399   16 1D                ASL $1D,X
139B   16 1D                ASL $1D,X
139D   16 1D                ASL $1D,X
139F   16 1D                ASL $1D,X
13A1   16 B1                ASL $B1,X
13A3   15 B1                ORA $B1,X
13A5   15 B1                ORA $B1,X
13A7   15 B1                ORA $B1,X
13A9   15 B1                ORA $B1,X
13AB   15 1D                ORA $1D,X
13AD   16 1D                ASL $1D,X
13AF   16 1D                ASL $1D,X
13B1   16 1D                ASL $1D,X
13B3   16 00                ASL $00,X
13B5   00                   BRK
13B6   00                   BRK
13B7   00                   BRK
13B8   4B                   ???
13B9   16 B3                ASL $B3,X
13BB   16 B3                ASL $B3,X
13BD   16 B3                ASL $B3,X
13BF   16 B3                ASL $B3,X
13C1   16 F9                ASL $F9,X
13C3   16 F9                ASL $F9,X
13C5   16 B3                ASL $B3,X
13C7   16 3B                ASL $3B,X
13C9   17                   ???
13CA   3B                   ???
13CB   17                   ???
13CC   97                   ???
13CD   17                   ???
13CE   3B                   ???
13CF   17                   ???
13D0   97                   ???
13D1   17                   ???
13D2   3B                   ???
13D3   17                   ???
13D4   3B                   ???
13D5   17                   ???
13D6   97                   ???
13D7   17                   ???
13D8   3B                   ???
13D9   17                   ???
13DA   97                   ???
13DB   17                   ???
13DC   B3                   ???
13DD   16 B3                ASL $B3,X
13DF   16 F9                ASL $F9,X
13E1   16 F9                ASL $F9,X
13E3   16 B3                ASL $B3,X
13E5   16 3B                ASL $3B,X
13E7   17                   ???
13E8   97                   ???
13E9   17                   ???
13EA   3B                   ???
13EB   17                   ???
13EC   97                   ???
13ED   17                   ???
13EE   00                   BRK
13EF   00                   BRK
13F0   00                   BRK
13F1   00                   BRK
13F2   D5 D6                CMP $D6,X
13F4   D7                   ???
13F5   D8                   CLD
13F6   D9 DA 02             CMP $02DA,Y
13F9   DC                   ???
13FA   00                   BRK
13FB   14                   ???
13FC   0E 00 CF             ASL $CF00
13FF   01 04                ORA ($04,X)
1401   00                   BRK
1402   20 01 DD             JSR $DD01
1405   01 C8                ORA ($C8,X)
1407   0F                   ???
1408   C9 04                CMP #$04
140A   CA                   DEX
140B   09 CB                ORA #$CB
140D   49 CC                EOR #$CC
140F   40                   RTI
1410   10 45                BPL L1457
1412   10 46                BPL L145A
1414   08                   PHP
1415   45 08                EOR $08
1417   43                   ???
1418   10 41                BPL L145B
141A   10 41                BPL L145D
141C   10 43                BPL L1461
141E   08                   PHP
141F   41 08                EOR ($08,X)
1421   3C                   ???
1422   10 3A                BPL L145E
1424   CC 10 D1             CPY $D110
1427   02                   ???
1428   2D 01 C8             AND $C801
142B   CB                   ???
142C   C9 DB                CMP #$DB
142E   01 00                ORA ($00,X)
1430   DC                   ???
1431   D2                   ???
1432   08                   PHP
1433   35 55                AND $55,X
1435   20 35 D2             JSR $D235
1438   08                   PHP
1439   3A                   ???
143A   5A                   ???
143B   20 3A D2             JSR $D23A
143E   08                   PHP
143F   35 55                AND $55,X
1441   20 35 D2             JSR $D235
1444   08                   PHP
1445   3A                   ???
1446   5A                   ???
1447   20 3A DB             JSR $DB3A
144A   01 00                ORA ($00,X)
144C   FA                   ???
144D   D2                   ???
144E   08                   PHP
144F   43                   ???
1450   63                   ???
1451   20 43 DB             JSR $DB43
1454   01 00                ORA ($00,X)
1456   DC                   ???
1457   D2         L1457     ???
1458   08                   PHP
1459   3A                   ???
145A   5A         L145A     ???
145B   20 3A D2   L145B     JSR $D23A
145E   08         L145E     PHP
145F   35 55                AND $55,X
1461   20 35 D2   L1461     JSR $D235
1464   08                   PHP
1465   3A                   ???
1466   5A                   ???
1467   20 3A D7             JSR $D73A
146A   00                   BRK
146B   00                   BRK
146C   C9 03                CMP #$03
146E   80                   ???
146F   00                   BRK
1470   00                   BRK
1471   00                   BRK
1472   CC 40 00             CPY $0040
1475   00                   BRK
1476   CC 40 D0             CPY $D040
1479   01 01                ORA ($01,X)
147B   D6 DC                DEC $DC,X
147D   00                   BRK
147E   14                   ???
147F   0F                   ???
1480   00                   BRK
1481   CF                   ???
1482   01 01                ORA ($01,X)
1484   00                   BRK
1485   40                   RTI
1486   00                   BRK
1487   00                   BRK
1488   00                   BRK
1489   DC                   ???
148A   04                   ???
148B   00                   BRK
148C   0C                   ???
148D   00                   BRK
148E   CF                   ???
148F   01 02                ORA ($02,X)
1491   00                   BRK
1492   20 00 CB             JSR $CB00
1495   8A                   TXA
1496   CA                   DEX
1497   08                   PHP
1498   14                   ???
1499   5A                   ???
149A   04                   ???
149B   55 04                EOR $04,X
149D   56 04                LSR $04,X
149F   53                   ???
14A0   14                   ???
14A1   55 04                EOR $04,X
14A3   51 04                EOR ($04),Y
14A5   53                   ???
14A6   04                   ???
14A7   4C 14 51             JMP $5114
14AA   04                   ???
14AB   4A                   LSR A
14AC   04                   ???
14AD   4C 04 49             JMP $4904
14B0   1E 4A 02             ASL $024A,X
14B3   00                   BRK
14B4   00                   BRK
14B5   00                   BRK
14B6   14                   ???
14B7   63                   ???
14B8   04                   ???
14B9   5A                   ???
14BA   04                   ???
14BB   5B                   ???
14BC   04                   ???
14BD   58                   CLI
14BE   14                   ???
14BF   5A                   ???
14C0   04                   ???
14C1   56 04                LSR $04,X
14C3   58                   CLI
14C4   04                   ???
14C5   55 14                EOR $14,X
14C7   56 04                LSR $04,X
14C9   53                   ???
14CA   04                   ???
14CB   55 04                EOR $04,X
14CD   52                   ???
14CE   1E 53 02             ASL $0253,X
14D1   00                   BRK
14D2   00                   BRK
14D3   00                   BRK
14D4   CB                   ???
14D5   AA                   TAX
14D6   24 55                BIT $55
14D8   04                   ???
14D9   54                   ???
14DA   04                   ???
14DB   55 04                EOR $04,X
14DD   56 04                LSR $04,X
14DF   55 04                EOR $04,X
14E1   53                   ???
14E2   04                   ???
14E3   51 04                EOR ($04),Y
14E5   49 10                EOR #$10
14E7   4C 18 4A             JMP $4A18
14EA   04                   ???
14EB   4A                   LSR A
14EC   04                   ???
14ED   51 04                EOR ($04),Y
14EF   4C 04 4A             JMP $4A04
14F2   04                   ???
14F3   45 04                EOR $04
14F5   41 10                EOR ($10,X)
14F7   48                   PHA
14F8   18                   CLC
14F9   46 04                LSR $04
14FB   46 04                LSR $04
14FD   49 04                EOR #$04
14FF   48                   PHA
1500   04                   ???
1501   46 04                LSR $04
1503   43                   ???
1504   04                   ???
1505   41 D2                EOR ($D2,X)
1507   1A                   ???
1508   3C                   ???
1509   45 0C                EOR $0C
150B   3C                   ???
150C   04                   ???
150D   45 D2                EOR $D2
150F   1A                   ???
1510   45 49                EOR $49
1512   0C                   ???
1513   45 04                EOR $04
1515   49 D2                EOR #$D2
1517   1A                   ???
1518   49 4C                EOR #$4C
151A   0C                   ???
151B   49 04                EOR #$04
151D   4C 10 4C             JMP $4C10
1520   D7                   ???
1521   00                   BRK
1522   00                   BRK
1523   DC                   ???
1524   04                   ???
1525   00                   BRK
1526   0C                   ???
1527   00                   BRK
1528   CF                   ???
1529   01 02                ORA ($02,X)
152B   00                   BRK
152C   20 01 D1             JSR $D101
152F   02                   ???
1530   2D 01 64             AND $6401
1533   D5 D8                CMP $D8,X
1535   CB                   ???
1536   AA                   TAX
1537   00                   BRK
1538   00                   BRK
1539   D5 D6                CMP $D6,X
153B   D7                   ???
153C   D8                   CLD
153D   D9 DA 02             CMP $02DA,Y
1540   DC                   ???
1541   00                   BRK
1542   14                   ???
1543   0E 00 CF             ASL $CF00
1546   01 04                ORA ($04,X)
1548   00                   BRK
1549   20 01 CA             JSR $CA01
154C   09 CB                ORA #$CB
154E   29 CC                AND #$CC
1550   40                   RTI
1551   10 41                BPL L1594
1553   10 43                BPL L1598
1555   08                   PHP
1556   39 08 39             AND $3908,Y
1559   10 3A                BPL L1595
155B   10 3A                BPL L1597
155D   10 36                BPL L1595
155F   08                   PHP
1560   39 08 39             AND $3908,Y
1563   10 31                BPL L1596
1565   CC 10 D1             CPY $D110
1568   02                   ???
1569   2D 01 C8             AND $C801
156C   CB                   ???
156D   89                   ???
156E   DB                   ???
156F   01 00                ORA ($00,X)
1571   C8                   INY
1572   D2                   ???
1573   08                   PHP
1574   29 49                AND #$49
1576   20 29 D2             JSR $D229
1579   08                   PHP
157A   31 51                AND ($51),Y
157C   20 31 D2             JSR $D231
157F   08                   PHP
1580   29 49                AND #$49
1582   20 29 D2             JSR $D229
1585   08                   PHP
1586   31 51                AND ($51),Y
1588   20 31 DB             JSR $DB31
158B   01 00                ORA ($00,X)
158D   E6 D2                INC $D2
158F   08                   PHP
1590   36 56                ROL $56,X
1592   20 36 DB             JSR $DB36
1595   01 00      L1595     ORA ($00,X)
1597   C8         L1597     INY
1598   D2         L1598     ???
1599   08                   PHP
159A   31 51                AND ($51),Y
159C   20 31 D2             JSR $D231
159F   08                   PHP
15A0   29 49                AND #$49
15A2   20 29 D2             JSR $D229
15A5   08                   PHP
15A6   31 51                AND ($51),Y
15A8   20 31 D7             JSR $D731
15AB   00                   BRK
15AC   00                   BRK
15AD   80                   ???
15AE   00                   BRK
15AF   00                   BRK
15B0   00                   BRK
15B1   F1 08                SBC ($08),Y
15B3   F2                   ???
15B4   08                   PHP
15B5   F1 04                SBC ($04),Y
15B7   F1 04                SBC ($04),Y
15B9   F3                   ???
15BA   08                   PHP
15BB   F0 08                BEQ L15C5
15BD   F2                   ???
15BE   08                   PHP
15BF   F1 04                SBC ($04),Y
15C1   F1 04                SBC ($04),Y
15C3   F2                   ???
15C4   08                   PHP
15C5   F0 08      L15C5     BEQ L15CF
15C7   F2                   ???
15C8   08                   PHP
15C9   F0 04                BEQ L15CF
15CB   F0 04                BEQ L15D1
15CD   F3                   ???
15CE   08                   PHP
15CF   F1 08      L15CF     SBC ($08),Y
15D1   F2         L15D1     ???
15D2   08                   PHP
15D3   F1 04                SBC ($04),Y
15D5   F1 04                SBC ($04),Y
15D7   F2                   ???
15D8   08                   PHP
15D9   00                   BRK
15DA   00                   BRK
15DB   CC 40 24             CPY $2440
15DE   51 04                EOR ($04),Y
15E0   4C 04 51             JMP $5104
15E3   04                   ???
15E4   53                   ???
15E5   04                   ???
15E6   51 04                EOR ($04),Y
15E8   4A                   LSR A
15E9   04                   ???
15EA   45 04                EOR $04
15EC   45 10                EOR $10
15EE   45 18                EOR $18
15F0   41 04                EOR ($04,X)
15F2   45 04                EOR $04
15F4   45 04                EOR $04
15F6   45 04                EOR $04
15F8   45 04                EOR $04
15FA   41 04                EOR ($04,X)
15FC   3A                   ???
15FD   10 43                BPL L1642
15FF   18                   CLC
1600   43                   ???
1601   04                   ???
1602   43                   ???
1603   04                   ???
1604   43                   ???
1605   04                   ???
1606   43                   ???
1607   04                   ???
1608   43                   ???
1609   04                   ???
160A   3A                   ???
160B   04                   ???
160C   3A                   ???
160D   0C                   ???
160E   39 04 3C             AND $3C04,Y
1611   0C                   ???
1612   3C                   ???
1613   04                   ???
1614   45 0C                EOR $0C
1616   45 04                EOR $04
1618   49 10                EOR #$10
161A   49 00                EOR #$00
161C   00                   BRK
161D   F0 08                BEQ L1627
161F   F2                   ???
1620   08                   PHP
1621   F0 04                BEQ L1627
1623   F0 04                BEQ L1629
1625   F2                   ???
1626   08                   PHP
1627   F1 08      L1627     SBC ($08),Y
1629   F2         L1629     ???
162A   08                   PHP
162B   F0 04                BEQ L1631
162D   F0 04                BEQ L1633
162F   F2                   ???
1630   04                   ???
1631   F2         L1631     ???
1632   04                   ???
1633   F1 08      L1633     SBC ($08),Y
1635   F2                   ???
1636   08                   PHP
1637   F0 04                BEQ L163D
1639   F0 04                BEQ L163F
163B   F3                   ???
163C   08                   PHP
163D   F0 08      L163D     BEQ L1647
163F   F2         L163F     ???
1640   08                   PHP
1641   F0 04                BEQ L1647
1643   F0 04                BEQ L1649
1645   F2                   ???
1646   04                   ???
1647   F2         L1647     ???
1648   04                   ???
1649   00         L1649     BRK
164A   00                   BRK
164B   D5 D6                CMP $D6,X
164D   D7                   ???
164E   D8                   CLD
164F   D9 DA 02             CMP $02DA,Y
1652   DC                   ???
1653   04                   ???
1654   00                   BRK
1655   0C                   ???
1656   00                   BRK
1657   CF                   ???
1658   01 02                ORA ($02,X)
165A   00                   BRK
165B   10 01                BPL L165E
165D   CA                   DEX
165E   09 CB      L165E     ORA #$CB
1660   4A                   LSR A
1661   CC 40 08             CPY $0840
1664   1A                   ???
1665   08                   PHP
1666   21 08                AND ($08,X)
1668   23                   ???
1669   08                   PHP
166A   26 08                ROL $08
166C   25 08                AND $08
166E   15 08                ORA $08,X
1670   1A                   ???
1671   08                   PHP
1672   18                   CLC
1673   10 16                BPL L168B
1675   10 23                BPL L169A
1677   08                   PHP
1678   25 08                AND $08
167A   15 10                ORA $10,X
167C   1A                   ???
167D   CB                   ???
167E   29 CA                AND #$CA
1680   08                   PHP
1681   08                   PHP
1682   15 08                ORA $08,X
1684   1C                   ???
1685   10 25                BPL L16AC
1687   08                   PHP
1688   1A                   ???
1689   08                   PHP
168A   25 10                AND $10
168C   2A                   ROL A
168D   08                   PHP
168E   15 08                ORA $08,X
1690   1C                   ???
1691   10 25                BPL L16B8
1693   08                   PHP
1694   1A                   ???
1695   08                   PHP
1696   25 10                AND $10
1698   2A                   ROL A
1699   08                   PHP
169A   23         L169A     ???
169B   08                   PHP
169C   2A                   ROL A
169D   10 33                BPL L16D2
169F   08                   PHP
16A0   1A                   ???
16A1   08                   PHP
16A2   25 10                AND $10
16A4   2A                   ROL A
16A5   08                   PHP
16A6   15 08                ORA $08,X
16A8   1C                   ???
16A9   10 25                BPL L16D0
16AB   08                   PHP
16AC   1A         L16AC     ???
16AD   08                   PHP
16AE   25 10                AND $10
16B0   2A                   ROL A
16B1   00                   BRK
16B2   00                   BRK
16B3   CB                   ???
16B4   68                   PLA
16B5   CA                   DEX
16B6   09 04                ORA #$04
16B8   1A         L16B8     ???
16B9   04                   ???
16BA   1A                   ???
16BB   04                   ???
16BC   21 04                AND ($04,X)
16BE   21 04                AND ($04,X)
16C0   23                   ???
16C1   04                   ???
16C2   23                   ???
16C3   04                   ???
16C4   24 04                BIT $04
16C6   25 04                AND $04
16C8   1A                   ???
16C9   04                   ???
16CA   1A                   ???
16CB   04                   ???
16CC   21 04                AND ($04,X)
16CE   21 04                AND ($04,X)
16D0   23         L16D0     ???
16D1   04                   ???
16D2   23         L16D2     ???
16D3   04                   ???
16D4   24 04                BIT $04
16D6   25 04                AND $04
16D8   1A                   ???
16D9   04                   ???
16DA   1A                   ???
16DB   04                   ???
16DC   21 04                AND ($04,X)
16DE   21 04                AND ($04,X)
16E0   23                   ???
16E1   04                   ???
16E2   23                   ???
16E3   04                   ???
16E4   24 04                BIT $04
16E6   25 04                AND $04
16E8   1A                   ???
16E9   04                   ???
16EA   1A                   ???
16EB   04                   ???
16EC   21 04                AND ($04,X)
16EE   21 04                AND ($04,X)
16F0   23                   ???
16F1   04                   ???
16F2   23                   ???
16F3   04                   ???
16F4   24 04                BIT $04
16F6   25 00                AND $00
16F8   00                   BRK
16F9   04                   ???
16FA   23                   ???
16FB   04                   ???
16FC   23                   ???
16FD   04                   ???
16FE   26 04                ROL $04
1700   26 04                ROL $04
1702   28                   PLP
1703   04                   ???
1704   28                   PLP
1705   04                   ???
1706   29 04                AND #$04
1708   2A                   ROL A
1709   04                   ???
170A   23                   ???
170B   04                   ???
170C   23                   ???
170D   04                   ???
170E   26 04                ROL $04
1710   26 04                ROL $04
1712   28                   PLP
1713   04                   ???
1714   28                   PLP
1715   04                   ???
1716   29 04                AND #$04
1718   2A                   ROL A
1719   04                   ???
171A   23                   ???
171B   04                   ???
171C   23                   ???
171D   04                   ???
171E   26 04                ROL $04
1720   26 04                ROL $04
1722   28                   PLP
1723   04                   ???
1724   28                   PLP
1725   04                   ???
1726   29 04                AND #$04
1728   2A                   ROL A
1729   04                   ???
172A   23                   ???
172B   04                   ???
172C   23                   ???
172D   04                   ???
172E   26 04                ROL $04
1730   26 04                ROL $04
1732   28                   PLP
1733   04                   ???
1734   28                   PLP
1735   04                   ???
1736   29 04                AND #$04
1738   2A                   ROL A
1739   00                   BRK
173A   00                   BRK
173B   CF                   ???
173C   01 02                ORA ($02,X)
173E   00                   BRK
173F   40                   RTI
1740   01 CB                ORA ($CB,X)
1742   C8                   INY
1743   CA                   DEX
1744   08                   PHP
1745   04                   ???
1746   1A                   ???
1747   04                   ???
1748   1A                   ???
1749   04                   ???
174A   21 04                AND ($04,X)
174C   21 04                AND ($04,X)
174E   23                   ???
174F   04                   ???
1750   23                   ???
1751   02                   ???
1752   24 02                BIT $02
1754   25 02                AND $02
1756   23                   ???
1757   02                   ???
1758   21 04                AND ($04,X)
175A   1A                   ???
175B   04                   ???
175C   1A                   ???
175D   04                   ???
175E   21 04                AND ($04,X)
1760   21 04                AND ($04,X)
1762   23                   ???
1763   04                   ???
1764   23                   ???
1765   02                   ???
1766   24 02                BIT $02
1768   25 02                AND $02
176A   23                   ???
176B   02                   ???
176C   21 04                AND ($04,X)
176E   1A                   ???
176F   04                   ???
1770   1A                   ???
1771   04                   ???
1772   21 04                AND ($04,X)
1774   21 04                AND ($04,X)
1776   23                   ???
1777   04                   ???
1778   23                   ???
1779   02                   ???
177A   24 02                BIT $02
177C   25 02                AND $02
177E   23                   ???
177F   02                   ???
1780   21 04                AND ($04,X)
1782   1A                   ???
1783   04                   ???
1784   1A                   ???
1785   04                   ???
1786   21 04                AND ($04,X)
1788   21 04                AND ($04,X)
178A   23                   ???
178B   04                   ???
178C   23                   ???
178D   02                   ???
178E   24 02                BIT $02
1790   25 02                AND $02
1792   23                   ???
1793   02                   ???
1794   21 00                AND ($00,X)
1796   00                   BRK
1797   04                   ???
1798   23                   ???
1799   04                   ???
179A   23                   ???
179B   04                   ???
179C   26 04                ROL $04
179E   26 04                ROL $04
17A0   28                   PLP
17A1   04                   ???
17A2   28                   PLP
17A3   02                   ???
17A4   29 02                AND #$02
17A6   2A                   ROL A
17A7   02                   ???
17A8   28                   PLP
17A9   02                   ???
17AA   26 04                ROL $04
17AC   23                   ???
17AD   04                   ???
17AE   23                   ???
17AF   04                   ???
17B0   26 04                ROL $04
17B2   26 04                ROL $04
17B4   28                   PLP
17B5   04                   ???
17B6   28                   PLP
17B7   02                   ???
17B8   29 02                AND #$02
17BA   2A                   ROL A
17BB   02                   ???
17BC   28                   PLP
17BD   02                   ???
17BE   26 04                ROL $04
17C0   25 04                AND $04
17C2   25 04                AND $04
17C4   29 04                AND #$04
17C6   29 04                AND #$04
17C8   2C 04 2C             BIT $2C04
17CB   02                   ???
17CC   31 02                AND ($02),Y
17CE   33                   ???
17CF   02                   ???
17D0   31 02                AND ($02),Y
17D2   2C 04 25             BIT $2504
17D5   04                   ???
17D6   25 04                AND $04
17D8   29 04                AND #$04
17DA   29 04                AND #$04
17DC   2C 04 2C             BIT $2C04
17DF   02                   ???
17E0   31 02                AND ($02),Y
17E2   33                   ???
17E3   02                   ???
17E4   31 02                AND ($02),Y
17E6   2C 00 00             BIT $0000
17E9   00                   BRK
17EA   00                   BRK
17EB   00                   BRK
17EC   00                   BRK
17ED   00                   BRK
17EE   80                   ???
17EF   00                   BRK
17F0   00                   BRK
17F1   00                   BRK
17F2   00                   BRK
17F3   00                   BRK
17F4   00                   BRK
17F5   00                   BRK
17F6   00                   BRK
17F7   00                   BRK
17F8   00                   BRK
17F9   96 00                STX $00,Y
17FB   12         L17FB     ???
17FC   00                   BRK
17FD   00                   BRK
17FE   90 FB                BCC L17FB
1800   00                   BRK
1801   01 01                ORA ($01,X)
1803   01 01                ORA ($01,X)
1805   01 01                ORA ($01,X)
1807   00                   BRK
1808   00                   BRK
1809   04                   ???
180A   14                   ???
180B   14                   ???
180C   00                   BRK
180D   0E 0E 0C             ASL $0C0E
1810   00                   BRK
1811   00                   BRK
1812   00                   BRK
1813   00                   BRK
1814   00                   BRK
1815   00                   BRK
1816   20 20 10             JSR L1020
1819   04                   ???
181A   04                   ???
181B   02                   ???
181C   04                   ???
181D   04                   ???
181E   02                   ???
181F   00                   BRK
1820   00                   BRK
1821   01 02                ORA ($02,X)
1823   02                   ???
1824   01 01                ORA ($01,X)
1826   01 00                ORA ($00,X)
1828   00                   BRK
1829   00                   BRK
182A   01 04                ORA ($04,X)
182C   04                   ???
182D   01 04                ORA ($04,X)
182F   04                   ???
1830   03                   ???
1831   01 01                ORA ($01,X)
1833   02                   ???
1834   01 01                ORA ($01,X)
1836   01 00                ORA ($00,X)
1838   00                   BRK
1839   01 64                ORA ($64,X)
183B   64                   ???
183C   64                   ???
183D   01 01                ORA ($01,X)
183F   04                   ???
1840   00                   BRK
1841   00                   BRK
1842   04                   ???
1843   4B                   ???
1844   35 0B                AND $0B,X
1846   44                   ???
1847   39 30 03             AND $0330,Y
184A   03                   ???
184B   00                   BRK
184C   00                   BRK
184D   01 01                ORA ($01,X)
184F   02                   ???
1850   01 01                ORA ($01,X)
1852   01 00                ORA ($00,X)
1854   00                   BRK
1855   00                   BRK
1856   DC                   ???
1857   C8                   INY
1858   14                   ???
1859   1A                   ???
185A   08                   PHP
185B   04                   ???
185C   1A                   ???
185D   08                   PHP
185E   04                   ???
185F   01 01                ORA ($01,X)
1861   00                   BRK
1862   1F                   ???
1863   21 00                AND ($00,X)
1865   A5 87                LDA $87
1867   00                   BRK
1868   01 10                ORA ($10,X)
186A   11 11                ORA ($11),Y
186C   1A                   ???
186D   80                   ???
186E   A0 C8                LDY #$C8
1870   10 10                BPL L1882
1872   10 4B                BPL L18BF
1874   35 0B                AND $0B,X
1876   44                   ???
1877   39 30 48             AND $4830,Y
187A   48                   PHA
187B   48                   PHA
187C   C8                   INY
187D   88                   DEY
187E   28                   PLP
187F   05 05                ORA $05
1881   04                   ???
1882   14         L1882     ???
1883   14                   ???
1884   A0 07                LDY #$07
1886   07                   ???
1887   04                   ???
1888   01 02                ORA ($02,X)
188A   02                   ???
188B   02                   ???
188C   00                   BRK
188D   00                   BRK
188E   00                   BRK
188F   0E 04 4B             ASL $4B04
1892   44                   ???
1893   02                   ???
1894   02                   ???
1895   02                   ???
1896   00                   BRK
1897   63                   ???
1898   B8                   CLV
1899   B8                   CLV
189A   B8                   CLV
189B   75 89                ADC $89,X
189D   9D 02 02             STA $0202,X
18A0   02                   ???
18A1   02                   ???
18A2   CC 00 04             CPY $0400
18A5   00                   BRK
18A6   00                   BRK
18A7   00                   BRK
18A8   CA                   DEX
18A9   00                   BRK
18AA   00                   BRK
18AB   6E 00 01             ROR $0100
18AE   00                   BRK
18AF   01 00                ORA ($00,X)
18B1   23                   ???
18B2   00                   BRK
18B3   01 01                ORA ($01,X)
18B5   00                   BRK
18B6   00                   BRK
18B7   00                   BRK
18B8   00                   BRK
18B9   E9 C7      L18B9     SBC #$C7
18BB   20 DE 21   L18BB     JSR L21DE
18BE   20 CE 18             JSR L18CE
18C1   20 EC 21             JSR L21EC
18C4   20 CE 18             JSR L18CE
18C7   20 FC 21             JSR L21FC
18CA   20 CE 18             JSR L18CE
18CD   60                   RTS
18CE   AE A1 18   L18CE     LDX $18A1
18D1   AD 85 18             LDA $1885
18D4   2D 90 18             AND $1890
18D7   F0 52                BEQ L192B
18D9   AD 00 18             LDA $1800
18DC   2D 90 18             AND $1890
18DF   F0 4A                BEQ L192B
18E1   BD 8C 18             LDA $188C,X
18E4   D0 45                BNE L192B
18E6   BD 1C 18             LDA $181C,X
18E9   F0 06                BEQ L18F1
18EB   DE 1C 18             DEC $181C,X
18EE   4C 2B 19             JMP L192B
18F1   DE 04 18   L18F1     DEC $1804,X
18F4   D0 35                BNE L192B
18F6   BD 01 18             LDA $1801,X
18F9   9D 04 18             STA $1804,X
18FC   20 0A 19             JSR L190A
18FF   DD 0D 18             CMP $180D,X
1902   90 27                BCC L192B
1904   20 1E 19             JSR L191E
1907   4C 2B 19             JMP L192B
190A   18         L190A     CLC
190B   BD 82 18             LDA L1882,X
190E   7D 16 18             ADC $1816,X
1911   9D 82 18             STA L1882,X
1914   BD 7F 18             LDA $187F,X
1917   7D 13 18             ADC $1813,X
191A   9D 7F 18             STA $187F,X
191D   60                   RTS
191E   BD 0A 18   L191E     LDA $180A,X
1921   9D 82 18             STA L1882,X
1924   BD 07 18             LDA $1807,X
1927   9D 7F 18             STA $187F,X
192A   60                   RTS
192B   AD 85 18   L192B     LDA $1885
192E   2D 90 18             AND $1890
1931   F0 47                BEQ L197A
1933   AD 20 18             LDA $1820
1936   2D 90 18             AND $1890
1939   F0 3F                BEQ L197A
193B   BD 8C 18             LDA $188C,X
193E   D0 3A                BNE L197A
1940   BD 2D 18             LDA $182D,X
1943   F0 06                BEQ L194B
1945   DE 2D 18             DEC $182D,X
1948   4C 7A 19             JMP L197A
194B   DE 24 18   L194B     DEC $1824,X
194E   D0 2A                BNE L197A
1950   20 56 19             JSR L1956
1953   4C 7A 19             JMP L197A
1956   BD 21 18   L1956     LDA $1821,X
1959   9D 24 18             STA $1824,X
195C   BD 27 18             LDA $1827,X
195F   D0 0D                BNE L196E
1961   18                   CLC
1962   1E 76 18             ASL $1876,X
1965   3E 73 18             ROL $1873,X
1968   A9 01                LDA #$01
196A   9D 27 18             STA $1827,X
196D   60                   RTS
196E   5E 73 18   L196E     LSR $1873,X
1971   7E 76 18             ROR $1876,X
1974   A9 00                LDA #$00
1976   9D 27 18             STA $1827,X
1979   60                   RTS
197A   AD 85 18   L197A     LDA $1885
197D   2D 90 18             AND $1890
1980   F0 15                BEQ L1997
1982   AD 30 18             LDA $1830
1985   2D 90 18             AND $1890
1988   F0 0D                BEQ L1997
198A   BD 8C 18             LDA $188C,X
198D   D0 7F                BNE L1A0E
198F   BD 40 18             LDA $1840,X
1992   F0 06                BEQ L199A
1994   DE 40 18             DEC $1840,X
1997   4C 0E 1A   L1997     JMP L1A0E
199A   DE 34 18   L199A     DEC $1834,X
199D   D0 6F                BNE L1A0E
199F   20 A5 19             JSR L19A5
19A2   4C 0E 1A             JMP L1A0E
19A5   BD 31 18   L19A5     LDA $1831,X
19A8   9D 34 18             STA $1834,X
19AB   BD 49 18             LDA $1849,X
19AE   D0 09                BNE L19B9
19B0   20 01 1A             JSR L1A01
19B3   A9 01                LDA #$01
19B5   9D 49 18             STA $1849,X
19B8   60                   RTS
19B9   C9 01      L19B9     CMP #$01
19BB   D0 19                BNE L19D6
19BD   18                   CLC
19BE   BD 46 18             LDA $1846,X
19C1   7D 3A 18             ADC $183A,X
19C4   9D 76 18             STA $1876,X
19C7   BD 43 18             LDA $1843,X
19CA   7D 37 18             ADC $1837,X
19CD   9D 73 18             STA $1873,X
19D0   A9 02                LDA #$02
19D2   9D 49 18             STA $1849,X
19D5   60                   RTS
19D6   C9 02      L19D6     CMP #$02
19D8   D0 09                BNE L19E3
19DA   20 01 1A             JSR L1A01
19DD   A9 03                LDA #$03
19DF   9D 49 18             STA $1849,X
19E2   60                   RTS
19E3   C9 03      L19E3     CMP #$03
19E5   F0 01                BEQ L19E8
19E7   60                   RTS
19E8   38         L19E8     SEC
19E9   BD 46 18             LDA $1846,X
19EC   FD 3A 18             SBC $183A,X
19EF   9D 76 18             STA $1876,X
19F2   BD 43 18             LDA $1843,X
19F5   FD 37 18             SBC $1837,X
19F8   9D 73 18             STA $1873,X
19FB   A9 00                LDA #$00
19FD   9D 49 18             STA $1849,X
1A00   60                   RTS
1A01   BD 46 18   L1A01     LDA $1846,X
1A04   9D 76 18             STA $1876,X
1A07   BD 43 18             LDA $1843,X
1A0A   9D 73 18             STA $1873,X
1A0D   60                   RTS
1A0E   AD 85 18   L1A0E     LDA $1885
1A11   2D 90 18             AND $1890
1A14   F0 15                BEQ L1A2B
1A16   AD 4C 18             LDA $184C
1A19   2D 90 18             AND $1890
1A1C   F0 0D                BEQ L1A2B
1A1E   BD 8C 18             LDA $188C,X
1A21   D0 08                BNE L1A2B
1A23   BD 5C 18             LDA $185C,X
1A26   F0 06                BEQ L1A2E
1A28   DE 5C 18             DEC $185C,X
1A2B   4C BD 1A   L1A2B     JMP L1ABD
1A2E   DE 50 18   L1A2E     DEC $1850,X
1A31   D0 F8                BNE L1A2B
1A33   20 39 1A             JSR L1A39
1A36   4C BD 1A             JMP L1ABD
1A39   BD 4D 18   L1A39     LDA $184D,X
1A3C   9D 50 18             STA $1850,X
1A3F   BD 5F 18             LDA $185F,X
1A42   D0 32                BNE L1A76
1A44   20 4C C2             JSR $C24C
1A47   60                   RTS
1A48   20 76 C2             JSR $C276
1A4B   60                   RTS
1A4C   BD 62 C0             LDA $C062,X
1A4F   DD 73 C0             CMP $C073,X
1A52   D0 03                BNE L1A57
1A54   4C 9B C2             JMP $C29B
1A57   90 03      L1A57     BCC L1A5C
1A59   4C 9B C2             JMP $C29B
1A5C   38         L1A5C     SEC
1A5D   BD 76 C0             LDA $C076,X
1A60   FD 56 C0             SBC $C056,X
1A63   9D 76 C0             STA $C076,X
1A66   9D 46 C0             STA $C046,X
1A69   BD 73 C0             LDA $C073,X
1A6C   FD 53 C0             SBC $C053,X
1A6F   9D 73 C0             STA $C073,X
1A72   9D 43 C0             STA $C043,X
1A75   60                   RTS
1A76   BD 73 18   L1A76     LDA $1873,X
1A79   DD 62 18             CMP $1862,X
1A7C   90 03                BCC L1A81
1A7E   4C 9B 1A             JMP L1A9B
1A81   18         L1A81     CLC
1A82   BD 76 18             LDA $1876,X
1A85   7D 56 18             ADC $1856,X
1A88   9D 76 18             STA $1876,X
1A8B   9D 46 18             STA $1846,X
1A8E   BD 73 18             LDA $1873,X
1A91   7D 53 18             ADC $1853,X
1A94   9D 73 18             STA $1873,X
1A97   9D 43 18             STA $1843,X
1A9A   60                   RTS
1A9B   AD 68 18   L1A9B     LDA $1868
1A9E   F0 1C                BEQ L1ABC
1AA0   BD 62 18             LDA $1862,X
1AA3   9D 73 18             STA $1873,X
1AA6   BD 65 18             LDA $1865,X
1AA9   9D 76 18             STA $1876,X
1AAC   A9 00                LDA #$00
1AAE   8D 68 18             STA $1868
1AB1   AD 90 18             LDA $1890
1AB4   49 FF                EOR #$FF
1AB6   2D 4C 18             AND $184C
1AB9   8D 4C 18             STA $184C
1ABC   60         L1ABC     RTS
1ABD   60         L1ABD     RTS
1ABE   AD 85 18   L1ABE     LDA $1885
1AC1   29 01                AND #$01
1AC3   F0 0C                BEQ L1AD1
1AC5   A2 00                LDX #$00
1AC7   A0 00                LDY #$00
1AC9   BD 8C 18             LDA $188C,X
1ACC   D0 03                BNE L1AD1
1ACE   20 F8 1A             JSR L1AF8
1AD1   AD 85 18   L1AD1     LDA $1885
1AD4   29 02                AND #$02
1AD6   F0 0C                BEQ L1AE4
1AD8   A2 01                LDX #$01
1ADA   A0 07                LDY #$07
1ADC   BD 8C 18             LDA $188C,X
1ADF   D0 03                BNE L1AE4
1AE1   20 F8 1A             JSR L1AF8
1AE4   AD 85 18   L1AE4     LDA $1885
1AE7   29 04                AND #$04
1AE9   F0 0C                BEQ L1AF7
1AEB   A2 02                LDX #$02
1AED   A0 0E                LDY #$0E
1AEF   BD 8C 18             LDA $188C,X
1AF2   D0 03                BNE L1AF7
1AF4   20 F8 1A             JSR L1AF8
1AF7   60         L1AF7     RTS
1AF8   BD 73 18   L1AF8     LDA $1873,X
1AFB   99 01 D4             STA $D401,Y
1AFE   BD 76 18             LDA $1876,X
1B01   99 00 D4             STA $D400,Y
1B04   BD 7F 18             LDA $187F,X
1B07   99 03 D4             STA $D403,Y
1B0A   BD 82 18             LDA L1882,X
1B0D   99 02 D4             STA $D402,Y
1B10   BD 79 18             LDA $1879,X
1B13   99 05 D4             STA $D405,Y
1B16   BD 7C 18             LDA $187C,X
1B19   99 06 D4             STA $D406,Y
1B1C   60                   RTS
1B1D   CE 88 18   L1B1D     DEC $1888
1B20   F0 01                BEQ L1B23
1B22   60                   RTS
1B23   AD 87 18   L1B23     LDA $1887
1B26   8D 88 18             STA $1888
1B29   AD 86 18             LDA $1886
1B2C   29 01                AND #$01
1B2E   D0 03                BNE L1B33
1B30   4C B3 C3             JMP $C3B3
1B33   A0 00      L1B33     LDY #$00
1B35   20 DE 21             JSR L21DE
1B38   A5 80                LDA $80
1B3A   85 86                STA $86
1B3C   A5 81                LDA $81
1B3E   85 87                STA $87
1B40   20 44 1D             JSR L1D44
1B43   B0 6E                BCS L1BB3
1B45   F0 03                BEQ L1B4A
1B47   4C B3 1B             JMP L1BB3
1B4A   B1 80      L1B4A     LDA ($80),Y
1B4C   D0 06                BNE L1B54
1B4E   20 B4 1D             JSR L1DB4
1B51   4C 33 1B             JMP L1B33
1B54   C9 F0      L1B54     CMP #$F0
1B56   90 10                BCC L1B68
1B58   C8                   INY
1B59   B1 3A                LDA ($3A),Y
1B5B   8D AD C0             STA $C0AD
1B5E   88                   DEY
1B5F   B1 3A                LDA ($3A),Y
1B61   C8                   INY
1B62   20 35 C6             JSR $C635
1B65   4C A6 C3             JMP $C3A6
1B68   C9 C8      L1B68     CMP #$C8
1B6A   90 06                BCC L1B72
1B6C   20 4F 1F             JSR L1F4F
1B6F   4C 33 1B             JMP L1B33
1B72   8D 89 18   L1B72     STA $1889
1B75   C8                   INY
1B76   B1 80                LDA ($80),Y
1B78   F0 13                BEQ L1B8D
1B7A   20 C4 1C             JSR L1CC4
1B7D   20 12 1D             JSR L1D12
1B80   20 7D 1D             JSR L1D7D
1B83   AD 85 18             LDA $1885
1B86   29 01                AND #$01
1B88   D0 03                BNE L1B8D
1B8A   4C A5 C3             JMP $C3A5
1B8D   8A         L1B8D     TXA
1B8E   48                   PHA
1B8F   AE 70 18             LDX $1870
1B92   8E 04 D4             STX $D404
1B95   8E 69 18             STX $1869
1B98   B1 80                LDA ($80),Y
1B9A   F0 07                BEQ L1BA3
1B9C   E8                   INX
1B9D   8E 04 D4             STX $D404
1BA0   8E 69 18             STX $1869
1BA3   68         L1BA3     PLA
1BA4   AA                   TAX
1BA5   EA                   NOP
1BA6   C8                   INY
1BA7   18                   CLC
1BA8   98                   TYA
1BA9   65 80                ADC $80
1BAB   85 80                STA $80
1BAD   A5 81                LDA $81
1BAF   69 00                ADC #$00
1BB1   85 81                STA $81
1BB3   AD 86 18   L1BB3     LDA $1886
1BB6   29 02                AND #$02
1BB8   D0 03                BNE L1BBD
1BBA   4C 3D C4             JMP $C43D
1BBD   A0 00      L1BBD     LDY #$00
1BBF   20 EC 21             JSR L21EC
1BC2   A5 82                LDA $82
1BC4   85 86                STA $86
1BC6   A5 83                LDA $83
1BC8   85 87                STA $87
1BCA   20 44 1D             JSR L1D44
1BCD   B0 6E                BCS L1C3D
1BCF   F0 03                BEQ L1BD4
1BD1   4C 3D 1C             JMP L1C3D
1BD4   B1 82      L1BD4     LDA ($82),Y
1BD6   D0 06                BNE L1BDE
1BD8   20 B4 1D             JSR L1DB4
1BDB   4C B3 1B             JMP L1BB3
1BDE   C9 F0      L1BDE     CMP #$F0
1BE0   90 10                BCC L1BF2
1BE2   C8                   INY
1BE3   B1 82                LDA ($82),Y
1BE5   8D AE 18             STA $18AE
1BE8   88                   DEY
1BE9   B1 82                LDA ($82),Y
1BEB   C8                   INY
1BEC   20 35 1E             JSR L1E35
1BEF   4C 30 1C             JMP L1C30
1BF2   C9 C8      L1BF2     CMP #$C8
1BF4   90 06                BCC L1BFC
1BF6   20 4F 1F             JSR L1F4F
1BF9   4C B3 1B             JMP L1BB3
1BFC   8D 8A 18   L1BFC     STA $188A
1BFF   C8                   INY
1C00   B1 82                LDA ($82),Y
1C02   F0 13                BEQ L1C17
1C04   20 C4 1C             JSR L1CC4
1C07   20 12 1D             JSR L1D12
1C0A   20 7D 1D             JSR L1D7D
1C0D   AD 85 18             LDA $1885
1C10   29 02                AND #$02
1C12   D0 03                BNE L1C17
1C14   4C 2F C4             JMP $C42F
1C17   8A         L1C17     TXA
1C18   48                   PHA
1C19   AE 71 18             LDX $1871
1C1C   8E 0B D4             STX $D40B
1C1F   8E 6A 18             STX $186A
1C22   B1 82                LDA ($82),Y
1C24   F0 07                BEQ L1C2D
1C26   E8                   INX
1C27   8E 0B D4             STX $D40B
1C2A   8E 6A 18             STX $186A
1C2D   68         L1C2D     PLA
1C2E   AA                   TAX
1C2F   EA                   NOP
1C30   C8         L1C30     INY
1C31   18                   CLC
1C32   98                   TYA
1C33   65 82                ADC $82
1C35   85 82                STA $82
1C37   A5 83                LDA $83
1C39   69 00                ADC #$00
1C3B   85 83                STA $83
1C3D   AD 86 18   L1C3D     LDA $1886
1C40   29 04                AND #$04
1C42   D0 01                BNE L1C45
1C44   60                   RTS
1C45   A0 00      L1C45     LDY #$00
1C47   20 FC 21             JSR L21FC
1C4A   A5 84                LDA $84
1C4C   85 86                STA $86
1C4E   A5 85                LDA $85
1C50   85 87                STA $87
1C52   20 44 1D             JSR L1D44
1C55   B0 02                BCS L1C59
1C57   F0 01                BEQ L1C5A
1C59   60         L1C59     RTS
1C5A   B1 84      L1C5A     LDA ($84),Y
1C5C   D0 06                BNE L1C64
1C5E   20 B4 1D             JSR L1DB4
1C61   4C 3D 1C             JMP L1C3D
1C64   C9 F0      L1C64     CMP #$F0
1C66   90 10                BCC L1C78
1C68   C8                   INY
1C69   B1 3E                LDA ($3E),Y
1C6B   8D AF C0             STA $C0AF
1C6E   88                   DEY
1C6F   B1 3E                LDA ($3E),Y
1C71   C8                   INY
1C72   20 35 C6             JSR $C635
1C75   4C B6 C4             JMP $C4B6
1C78   C9 C8      L1C78     CMP #$C8
1C7A   90 06                BCC L1C82
1C7C   20 4F 1F             JSR L1F4F
1C7F   4C 3D 1C             JMP L1C3D
1C82   8D 8B 18   L1C82     STA $188B
1C85   C8                   INY
1C86   B1 84                LDA ($84),Y
1C88   F0 13                BEQ L1C9D
1C8A   20 C4 1C             JSR L1CC4
1C8D   20 12 1D             JSR L1D12
1C90   20 7D 1D             JSR L1D7D
1C93   AD 85 18             LDA $1885
1C96   29 04                AND #$04
1C98   D0 03                BNE L1C9D
1C9A   4C B5 C4             JMP $C4B5
1C9D   8A         L1C9D     TXA
1C9E   48                   PHA
1C9F   AE 72 18             LDX $1872
1CA2   8E 12 D4             STX $D412
1CA5   8E 6B 18             STX $186B
1CA8   B1 84                LDA ($84),Y
1CAA   F0 07                BEQ L1CB3
1CAC   E8                   INX
1CAD   8E 12 D4             STX $D412
1CB0   8E 6B 18             STX $186B
1CB3   68         L1CB3     PLA
1CB4   AA                   TAX
1CB5   EA                   NOP
1CB6   C8                   INY
1CB7   18                   CLC
1CB8   98                   TYA
1CB9   65 84                ADC $84
1CBB   85 84                STA $84
1CBD   A5 85                LDA $85
1CBF   69 00                ADC #$00
1CC1   85 85                STA $85
1CC3   60                   RTS
1CC4   8D 97 18   L1CC4     STA $1897
1CC7   29 0F                AND #$0F
1CC9   0A                   ASL A
1CCA   8E 96 18             STX $1896
1CCD   AA                   TAX
1CCE   BD 25 1D             LDA $1D25,X
1CD1   8D 91 18             STA $1891
1CD4   E8                   INX
1CD5   BD 25 1D             LDA $1D25,X
1CD8   8D 92 18             STA $1892
1CDB   AD 97 18             LDA $1897
1CDE   29 70                AND #$70
1CE0   4A                   LSR A
1CE1   4A                   LSR A
1CE2   4A                   LSR A
1CE3   4A                   LSR A
1CE4   C9 05                CMP #$05
1CE6   F0 26                BEQ L1D0E
1CE8   90 15                BCC L1CFF
1CEA   18                   CLC
1CEB   0E 92 18             ASL $1892
1CEE   2E 91 18             ROL $1891
1CF1   C9 06                CMP #$06
1CF3   F0 19                BEQ L1D0E
1CF5   18                   CLC
1CF6   0E 92 C0             ASL $C092
1CF9   2E 91 C0             ROL $C091
1CFC   4C 0E C5             JMP $C50E
1CFF   AA         L1CFF     TAX
1D00   BD 3F 1D             LDA $1D3F,X
1D03   AA                   TAX
1D04   18         L1D04     CLC
1D05   4E 91 18             LSR $1891
1D08   6E 92 18             ROR $1892
1D0B   CA                   DEX
1D0C   10 F6                BPL L1D04
1D0E   AE 96 18   L1D0E     LDX $1896
1D11   60                   RTS
1D12   AD 91 18   L1D12     LDA $1891
1D15   9D 73 18             STA $1873,X
1D18   9D 43 18             STA $1843,X
1D1B   AD 92 18             LDA $1892
1D1E   9D 76 18             STA $1876,X
1D21   9D 46 18             STA $1846,X
1D24   60                   RTS
1D25   00                   BRK
1D26   00                   BRK
1D27   21 87                AND ($87,X)
1D29   23                   ???
1D2A   86 25                STX $25
1D2C   A2 27                LDX #$27
1D2E   DF                   ???
1D2F   2A                   ROL A
1D30   3E 2C C1             ROL $C12C,X
1D33   2F                   ???
1D34   6B                   ???
1D35   32                   ???
1D36   3C                   ???
1D37   35 39                AND $39,X
1D39   38                   SEC
1D3A   63                   ???
1D3B   3B                   ???
1D3C   BE 3F 4B             LDX $4B3F,Y
1D3F   04                   ???
1D40   03                   ???
1D41   02                   ???
1D42   01 00                ORA ($00,X)
1D44   BD 8C 18   L1D44     LDA $188C,X
1D47   F0 05                BEQ L1D4E
1D49   20 35 1E             JSR L1E35
1D4C   38                   SEC
1D4D   60                   RTS
1D4E   DE 89 18   L1D4E     DEC $1889,X
1D51   AD 85 18             LDA $1885
1D54   2D 90 18             AND $1890
1D57   F0 1F                BEQ L1D78
1D59   BD 89 18             LDA $1889,X
1D5C   DD 93 18             CMP $1893,X
1D5F   F0 05                BEQ L1D66
1D61   90 03                BCC L1D66
1D63   4C 78 1D             JMP L1D78
1D66   BD 70 18   L1D66     LDA $1870,X
1D69   8E 96 18             STX $1896
1D6C   AE 8F 18             LDX $188F
1D6F   9D 04 D4             STA $D404,X
1D72   AE 96 18             LDX $1896
1D75   9D 69 18             STA $1869,X
1D78   BD 89 18   L1D78     LDA $1889,X
1D7B   18                   CLC
1D7C   60                   RTS
1D7D   BD 2A 18   L1D7D     LDA $182A,X
1D80   9D 2D 18             STA $182D,X
1D83   A9 00                LDA #$00
1D85   9D 27 18             STA $1827,X
1D88   BD 19 18             LDA $1819,X
1D8B   9D 1C 18             STA $181C,X
1D8E   AD 1F 18             LDA $181F
1D91   2D 90 18             AND $1890
1D94   F0 0C                BEQ L1DA2
1D96   BD 07 18             LDA $1807,X
1D99   9D 7F 18             STA $187F,X
1D9C   BD 0A 18             LDA $180A,X
1D9F   9D 82 18             STA L1882,X
1DA2   BD 3D 18   L1DA2     LDA $183D,X
1DA5   9D 40 18             STA $1840,X
1DA8   BD 59 18             LDA $1859,X
1DAB   9D 5C 18             STA $185C,X
1DAE   A9 01                LDA #$01
1DB0   8D 68 18             STA $1868
1DB3   60                   RTS
1DB4   BD 9B 18   L1DB4     LDA $189B,X
1DB7   85 88                STA $88
1DB9   BD 98 18             LDA $1898,X
1DBC   85 89                STA $89
1DBE   BC 9E 18             LDY $189E,X
1DC1   B1 88                LDA ($88),Y
1DC3   E0 00                CPX #$00
1DC5   D0 14                BNE L1DDB
1DC7   85 80                STA $80
1DC9   C8                   INY
1DCA   B1 88                LDA ($88),Y
1DCC   D0 08                BNE L1DD6
1DCE   A0 00                LDY #$00
1DD0   8C 9E 18             STY $189E
1DD3   4C B4 1D             JMP L1DB4
1DD6   85 81      L1DD6     STA $81
1DD8   4C 04 1E             JMP L1E04
1DDB   E0 01      L1DDB     CPX #$01
1DDD   D0 14                BNE L1DF3
1DDF   85 82                STA $82
1DE1   C8                   INY
1DE2   B1 88                LDA ($88),Y
1DE4   D0 08                BNE L1DEE
1DE6   A0 00                LDY #$00
1DE8   8C 9F 18             STY $189F
1DEB   4C B4 1D             JMP L1DB4
1DEE   85 83      L1DEE     STA $83
1DF0   4C 04 1E             JMP L1E04
1DF3   85 84      L1DF3     STA $84
1DF5   C8                   INY
1DF6   B1 88                LDA ($88),Y
1DF8   D0 08                BNE L1E02
1DFA   A0 00                LDY #$00
1DFC   8C A0 18             STY $18A0
1DFF   4C B4 1D             JMP L1DB4
1E02   85 85      L1E02     STA $85
1E04   C8         L1E04     INY
1E05   98                   TYA
1E06   9D 9E 18             STA $189E,X
1E09   A9 01                LDA #$01
1E0B   9D 89 18             STA $1889,X
1E0E   60                   RTS
1E0F   20 C4 1C   L1E0F     JSR L1CC4
1E12   AE A1 18             LDX $18A1
1E15   AD 92 18             LDA $1892
1E18   9D 65 18             STA $1865,X
1E1B   AD 91 18             LDA $1891
1E1E   9D 62 18             STA $1862,X
1E21   DD 73 18             CMP $1873,X
1E24   90 09                BCC L1E2F
1E26   F0 07                BEQ L1E2F
1E28   A9 01                LDA #$01
1E2A   9D 5F 18             STA $185F,X
1E2D   D0 05                BNE L1E34
1E2F   A9 00      L1E2F     LDA #$00
1E31   9D 5F C0             STA $C05F,X
1E34   60         L1E34     RTS
1E35   8D A2 18   L1E35     STA $18A2
1E38   8C B5 18             STY $18B5
1E3B   AE A1 18             LDX $18A1
1E3E   BD 8C 18             LDA $188C,X
1E41   F0 03                BEQ L1E46
1E43   4C DE 1E             JMP L1EDE
1E46   A9 00      L1E46     LDA #$00
1E48   9D 73 18             STA $1873,X
1E4B   9D 43 18             STA $1843,X
1E4E   9D 76 18             STA $1876,X
1E51   9D 46 18             STA $1846,X
1E54   AD A2 18             LDA $18A2
1E57   38                   SEC
1E58   E9 F0                SBC #$F0
1E5A   9D 8C 18             STA $188C,X
1E5D   9D A3 18             STA $18A3,X
1E60   FE 8C 18             INC $188C,X
1E63   BD 8C 18             LDA $188C,X
1E66   9D B6 18             STA $18B6,X
1E69   18                   CLC
1E6A   1E A3 18             ASL $18A3,X
1E6D   BD A3 18             LDA $18A3,X
1E70   AA                   TAX
1E71   BD 0C 22             LDA $220C,X
1E74   85 8A                STA $8A
1E76   E8                   INX
1E77   BD 0C 22             LDA $220C,X
1E7A   85 8B                STA $8B
1E7C   A0 00                LDY #$00
1E7E   AE 8F 18             LDX $188F
1E81   AD 85 18             LDA $1885
1E84   2D 90 18             AND $1890
1E87   F0 55                BEQ L1EDE
1E89   B1 8A                LDA ($8A),Y
1E8B   9D 05 D4             STA $D405,X
1E8E   C8                   INY
1E8F   B1 8A                LDA ($8A),Y
1E91   9D 06 D4             STA $D406,X
1E94   C8                   INY
1E95   B1 8A                LDA ($8A),Y
1E97   9D 03 D4             STA $D403,X
1E9A   C8                   INY
1E9B   B1 8A                LDA ($8A),Y
1E9D   9D 02 D4             STA $D402,X
1EA0   C8                   INY
1EA1   B1 8A                LDA ($8A),Y
1EA3   F0 09                BEQ L1EAE
1EA5   AD 90 C0             LDA $C090
1EA8   0D 6D C0             ORA $C06D
1EAB   8D 17 D4             STA $D417
1EAE   C8         L1EAE     INY
1EAF   B1 8A                LDA ($8A),Y
1EB1   9D 04 D4             STA $D404,X
1EB4   18                   CLC
1EB5   69 01                ADC #$01
1EB7   9D 04 D4             STA $D404,X
1EBA   C8                   INY
1EBB   B1 8A                LDA ($8A),Y
1EBD   9D 01 D4             STA $D401,X
1EC0   C8                   INY
1EC1   B1 8A                LDA ($8A),Y
1EC3   9D 00 D4             STA $D400,X
1EC6   AE A1 18             LDX $18A1
1EC9   A5 8A                LDA $8A
1ECB   9D AA 18             STA $18AA,X
1ECE   A5 8B                LDA $8B
1ED0   9D A7 18             STA $18A7,X
1ED3   C8                   INY
1ED4   98                   TYA
1ED5   9D B0 18             STA $18B0,X
1ED8   DE AD 18             DEC $18AD,X
1EDB   4C 4B 1F             JMP L1F4B
1EDE   AE A1 18   L1EDE     LDX $18A1
1EE1   DE AD 18             DEC $18AD,X
1EE4   D0 65                BNE L1F4B
1EE6   A9 00                LDA #$00
1EE8   9D 8C 18             STA $188C,X
1EEB   A9 01                LDA #$01
1EED   9D 89 18             STA $1889,X
1EF0   4C 16 1F             JMP L1F16
1EF3   AE A1 18   L1EF3     LDX $18A1
1EF6   AD 85 18             LDA $1885
1EF9   2D 90 18             AND $1890
1EFC   F0 4D                BEQ L1F4B
1EFE   BD B6 18             LDA $18B6,X
1F01   F0 48                BEQ L1F4B
1F03   BC B0 18             LDY $18B0,X
1F06   BD AA 18             LDA $18AA,X
1F09   85 8A                STA $8A
1F0B   BD A7 18             LDA $18A7,X
1F0E   85 8B                STA $8B
1F10   B1 8A                LDA ($8A),Y
1F12   C9 FF                CMP #$FF
1F14   D0 1B                BNE L1F31
1F16   AD 90 18   L1F16     LDA $1890
1F19   2D 6D 18             AND $186D
1F1C   D0 0B                BNE L1F29
1F1E   AD 90 18             LDA $1890
1F21   49 FF                EOR #$FF
1F23   2D 6D 18             AND $186D
1F26   8D 17 D4             STA $D417
1F29   A9 00      L1F29     LDA #$00
1F2B   9D B6 18             STA $18B6,X
1F2E   4C 4B 1F             JMP L1F4B
1F31   AE 8F 18   L1F31     LDX $188F
1F34   9D 04 D4             STA $D404,X
1F37   C8                   INY
1F38   B1 8A                LDA ($8A),Y
1F3A   9D 01 D4             STA $D401,X
1F3D   C8                   INY
1F3E   B1 8A                LDA ($8A),Y
1F40   9D 00 D4             STA $D400,X
1F43   C8                   INY
1F44   AE A1 18             LDX $18A1
1F47   98                   TYA
1F48   9D B0 18             STA $18B0,X
1F4B   AC B5 18   L1F4B     LDY $18B5
1F4E   60                   RTS
1F4F   8D A2 18   L1F4F     STA $18A2
1F52   C8                   INY
1F53   AD A2 18             LDA $18A2
1F56   38                   SEC
1F57   E9 C8                SBC #$C8
1F59   18                   CLC
1F5A   0A                   ASL A
1F5B   AA                   TAX
1F5C   BD 93 1F             LDA $1F93,X
1F5F   8D B9 18             STA L18B9
1F62   E8                   INX
1F63   BD 93 1F             LDA $1F93,X
1F66   8D BA 18             STA $18BA
1F69   AE A1 18             LDX $18A1
1F6C   D0 0B                BNE L1F79
1F6E   A5 80                LDA $80
1F70   85 8A                STA $8A
1F72   A5 81                LDA $81
1F74   85 8B                STA $8B
1F76   6C B9 18             JMP (L18B9)
1F79   E0 01      L1F79     CPX #$01
1F7B   D0 0B                BNE L1F88
1F7D   A5 82                LDA $82
1F7F   85 8A                STA $8A
1F81   A5 83                LDA $83
1F83   85 8B                STA $8B
1F85   6C B9 18             JMP (L18B9)
1F88   A5 84      L1F88     LDA $84
1F8A   85 8A                STA $8A
1F8C   A5 85                LDA $85
1F8E   85 8B                STA $8B
1F90   6C B9 18             JMP (L18B9)
1F93   C1 1F                CMP ($1F,X)
1F95   D1 1F                CMP ($1F),Y
1F97   D9 1F E1             CMP $E11F,Y
1F9A   1F                   ???
1F9B   E9 1F                SBC #$1F
1F9D   F1 C7                SBC ($C7),Y
1F9F   FF                   ???
1FA0   C7                   ???
1FA1   25 20                AND $20
1FA3   67                   ???
1FA4   20 81 20             JSR L2081
1FA7   A7                   ???
1FA8   20 D6 C8             JSR $C8D6
1FAB   D7                   ???
1FAC   20 F1 20             JSR L20F1
1FAF   00                   BRK
1FB0   21 0F                AND ($0F,X)
1FB2   21 13                AND ($13,X)
1FB4   21 17                AND ($17,X)
1FB6   21 29                AND ($29,X)
1FB8   21 31                AND ($31,X)
1FBA   21 45                AND ($45,X)
1FBC   21 5F                AND ($5F,X)
1FBE   21 6A                AND ($6A,X)
1FC0   C9 AD                CMP #$AD
1FC2   6C 18 29             JMP ($2918)
1FC5   F0 11                BEQ L1FD8
1FC7   8A                   TXA
1FC8   8D 18 D4             STA $D418
1FCB   8D 6C 18             STA $186C
1FCE   4C 73 21             JMP L2173
1FD1   B1 8A                LDA ($8A),Y
1FD3   8D 87 18             STA $1887
1FD6   4C 73 21             JMP L2173
1FD9   B1 8A                LDA ($8A),Y
1FDB   9D 79 18             STA $1879,X
1FDE   4C 73 21             JMP L2173
1FE1   B1 8A                LDA ($8A),Y
1FE3   9D 7C 18             STA $187C,X
1FE6   4C 73 21             JMP L2173
1FE9   B1 8A                LDA ($8A),Y
1FEB   9D 70 18             STA $1870,X
1FEE   4C 73 21             JMP L2173
1FF1   00                   BRK
1FF2   00                   BRK
1FF3   00                   BRK
1FF4   00                   BRK
1FF5   00                   BRK
1FF6   00                   BRK
1FF7   00                   BRK
1FF8   00                   BRK
1FF9   00                   BRK
1FFA   00                   BRK
1FFB   00                   BRK
1FFC   00                   BRK
1FFD   00                   BRK
1FFE   00                   BRK
1FFF   00                   BRK
2000   AA                   TAX
2001   BD 10 20             LDA $2010,X
2004   8D 0F 20             STA $200F
2007   BD 12 20             LDA $2012,X
200A   8D 0E 20             STA $200E
200D   4C 00 10             JMP L1000
2010   10 13                BPL L2025
2012   00                   BRK
2013   14                   ???
2014   00                   BRK
2015   00                   BRK
2016   00                   BRK
2017   00                   BRK
2018   00                   BRK
2019   00                   BRK
201A   00                   BRK
201B   00                   BRK
201C   00                   BRK
201D   00                   BRK
201E   00                   BRK
201F   00                   BRK
2020   00                   BRK
2021   00                   BRK
2022   00                   BRK
2023   00                   BRK
2024   00                   BRK
2025   AD 90 18   L2025     LDA $1890
2028   0D 00 18             ORA $1800
202B   8D 00 18             STA $1800
202E   B1 8A                LDA ($8A),Y
2030   9D 01 18             STA $1801,X
2033   C8                   INY
2034   B1 8A                LDA ($8A),Y
2036   9D 19 18             STA $1819,X
2039   9D 1C 18             STA $181C,X
203C   C8                   INY
203D   B1 8A                LDA ($8A),Y
203F   9D 13 18             STA $1813,X
2042   C8                   INY
2043   B1 8A                LDA ($8A),Y
2045   9D 16 18             STA $1816,X
2048   C8                   INY
2049   B1 8A                LDA ($8A),Y
204B   D0 0E                BNE L205B
204D   AD 90 18             LDA $1890
2050   49 FF                EOR #$FF
2052   2D 1F 18             AND $181F
2055   8D 1F 18             STA $181F
2058   4C 73 21             JMP L2173
205B   AD 90 18   L205B     LDA $1890
205E   0D 1F 18             ORA $181F
2061   8D 1F 18             STA $181F
2064   4C 73 21             JMP L2173
2067   AD 90 18             LDA $1890
206A   0D 20 18             ORA $1820
206D   8D 20 18             STA $1820
2070   B1 8A                LDA ($8A),Y
2072   9D 21 18             STA $1821,X
2075   C8                   INY
2076   B1 8A                LDA ($8A),Y
2078   9D 2A 18             STA $182A,X
207B   9D 2D 18             STA $182D,X
207E   4C 73 21             JMP L2173
2081   AD 90 18   L2081     LDA $1890
2084   0D 30 18             ORA $1830
2087   8D 30 18             STA $1830
208A   B1 8A                LDA ($8A),Y
208C   9D 31 18             STA $1831,X
208F   C8                   INY
2090   B1 8A                LDA ($8A),Y
2092   9D 3D 18             STA $183D,X
2095   9D 40 18             STA $1840,X
2098   C8                   INY
2099   B1 8A                LDA ($8A),Y
209B   9D 37 18             STA $1837,X
209E   C8                   INY
209F   B1 8A                LDA ($8A),Y
20A1   9D 3A 18             STA $183A,X
20A4   4C 73 21             JMP L2173
20A7   AD 90 18             LDA $1890
20AA   0D 4C 18             ORA $184C
20AD   8D 4C 18             STA $184C
20B0   B1 8A                LDA ($8A),Y
20B2   9D 59 18             STA $1859,X
20B5   9D 5C 18             STA $185C,X
20B8   C8                   INY
20B9   B1 8A                LDA ($8A),Y
20BB   20 C4 1C             JSR L1CC4
20BE   AE A1 18             LDX $18A1
20C1   AD 91 18             LDA $1891
20C4   9D 73 18             STA $1873,X
20C7   AD 92 18             LDA $1892
20CA   9D 76 18             STA $1876,X
20CD   C8                   INY
20CE   B1 8A                LDA ($8A),Y
20D0   20 0F 1E             JSR L1E0F
20D3   4C 73 21             JMP L2173
20D6   88                   DEY
20D7   AD 90 18             LDA $1890
20DA   49 FF                EOR #$FF
20DC   2D 00 18             AND $1800
20DF   8D 00 18             STA $1800
20E2   AD 90 18             LDA $1890
20E5   49 FF                EOR #$FF
20E7   2D 1F 18             AND $181F
20EA   8D 1F 18             STA $181F
20ED   88                   DEY
20EE   4C 73 21             JMP L2173
20F1   AD 90 18   L20F1     LDA $1890
20F4   49 FF                EOR #$FF
20F6   2D 20 18             AND $1820
20F9   8D 20 18             STA $1820
20FC   88                   DEY
20FD   4C 73 21             JMP L2173
2100   AD 90 18             LDA $1890
2103   49 FF                EOR #$FF
2105   2D 30 18             AND $1830
2108   8D 30 18             STA $1830
210B   88                   DEY
210C   4C 73 21             JMP L2173
210F   88                   DEY
2110   4C 73 21             JMP L2173
2113   88                   DEY
2114   4C 73 21             JMP L2173
2117   AD 90 18             LDA $1890
211A   49 FF                EOR #$FF
211C   2D 6D 18             AND $186D
211F   8D 6D 18             STA $186D
2122   8D 17 D4             STA $D417
2125   88                   DEY
2126   4C 73 21             JMP L2173
2129   B1 8A                LDA ($8A),Y
212B   9D 93 18             STA $1893,X
212E   4C 73 21             JMP L2173
2131   B1 8A                LDA ($8A),Y
2133   9D 4D 18             STA $184D,X
2136   C8                   INY
2137   B1 8A                LDA ($8A),Y
2139   9D 53 18             STA $1853,X
213C   C8                   INY
213D   B1 8A                LDA ($8A),Y
213F   9D 56 18             STA $1856,X
2142   4C 73 21             JMP L2173
2145   B1 8A                LDA ($8A),Y
2147   9D 07 18             STA $1807,X
214A   C8                   INY
214B   B1 8A                LDA ($8A),Y
214D   9D 0A 18             STA $180A,X
2150   C8                   INY
2151   B1 8A                LDA ($8A),Y
2153   9D 0D 18             STA $180D,X
2156   C8                   INY
2157   B1 8A                LDA ($8A),Y
2159   9D 10 18             STA $1810,X
215C   4C 73 21             JMP L2173
215F   B1 8A                LDA ($8A),Y
2161   8D B3 18             STA $18B3
2164   8D B4 18             STA $18B4
2167   4C 73 21             JMP L2173
216A   A9 00                LDA #$00
216C   8D 86 C0             STA $C086
216F   88                   DEY
2170   4C 73 C9             JMP $C973
2173   A9 01      L2173     LDA #$01
2175   AE A1 18             LDX $18A1
2178   9D 89 18             STA $1889,X
217B   18                   CLC
217C   C8                   INY
217D   98                   TYA
217E   65 8A                ADC $8A
2180   85 8A                STA $8A
2182   A5 8B                LDA $8B
2184   69 00                ADC #$00
2186   85 8B                STA $8B
2188   AE A1 18             LDX $18A1
218B   D0 09                BNE L2196
218D   A5 8A                LDA $8A
218F   85 80                STA $80
2191   A5 8B                LDA $8B
2193   85 81                STA $81
2195   60                   RTS
2196   E0 01      L2196     CPX #$01
2198   D0 09                BNE L21A3
219A   A5 8A                LDA $8A
219C   85 82                STA $82
219E   A5 8B                LDA $8B
21A0   85 83                STA $83
21A2   60                   RTS
21A3   A5 8A      L21A3     LDA $8A
21A5   85 84                STA $84
21A7   A5 8B                LDA $8B
21A9   85 85                STA $85
21AB   60                   RTS
21AC   69 00                ADC #$00
21AE   85 3F                STA $3F
21B0   60                   RTS
21B1   20 1D 1B             JSR L1B1D
21B4   20 BE 1A             JSR L1ABE
21B7   20 BB 18             JSR L18BB
21BA   20 BE 1A             JSR L1ABE
21BD   CE B4 18             DEC $18B4
21C0   D0 18                BNE L21DA
21C2   AD B3 18             LDA $18B3
21C5   8D B4 18             STA $18B4
21C8   20 DE 21             JSR L21DE
21CB   20 F3 1E             JSR L1EF3
21CE   20 EC 21             JSR L21EC
21D1   20 F3 1E             JSR L1EF3
21D4   20 FC 21             JSR L21FC
21D7   20 F3 1E             JSR L1EF3
21DA   20 FA 22   L21DA     JSR L22FA
21DD   60                   RTS
21DE   A2 00      L21DE     LDX #$00
21E0   8E A1 18             STX $18A1
21E3   8E 8F 18             STX $188F
21E6   A9 01                LDA #$01
21E8   8D 90 18             STA $1890
21EB   60                   RTS
21EC   A2 01      L21EC     LDX #$01
21EE   8E A1 18             STX $18A1
21F1   A9 07                LDA #$07
21F3   8D 8F 18             STA $188F
21F6   A9 02                LDA #$02
21F8   8D 90 18             STA $1890
21FB   60                   RTS
21FC   A2 02      L21FC     LDX #$02
21FE   8E A1 18             STX $18A1
2201   A9 0E                LDA #$0E
2203   8D 8F 18             STA $188F
2206   A9 04                LDA #$04
2208   8D 90 18             STA $1890
220B   60                   RTS
220C   16 22                ASL $22,X
220E   47                   ???
220F   22                   ???
2210   6E 22 A4             ROR $A422
2213   22                   ???
2214   A4 CA                LDY $CA
2216   09 A5                ORA #$A5
2218   08                   PHP
2219   08                   PHP
221A   00                   BRK
221B   80                   ???
221C   09 00                ORA #$00
221E   81 0D                STA ($0D,X)
2220   00                   BRK
2221   81 0D                STA ($0D,X)
2223   00                   BRK
2224   41 0D                EOR ($0D,X)
2226   00                   BRK
2227   41 0C                EOR ($0C,X)
2229   C8                   INY
222A   41 0C                EOR ($0C,X)
222C   64                   ???
222D   41 0C                EOR ($0C,X)
222F   00                   BRK
2230   41 0B                EOR ($0B,X)
2232   C8                   INY
2233   41 0B                EOR ($0B,X)
2235   64                   ???
2236   41 0B                EOR ($0B,X)
2238   00                   BRK
2239   40                   RTI
223A   0A                   ASL A
223B   C8                   INY
223C   40                   RTI
223D   0A                   ASL A
223E   64                   ???
223F   40                   RTI
2240   0A                   ASL A
2241   00                   BRK
2242   40                   RTI
2243   00                   BRK
2244   00                   BRK
2245   FF                   ???
2246   FF                   ???
2247   08                   PHP
2248   A5 04                LDA $04
224A   04                   ???
224B   00                   BRK
224C   40                   RTI
224D   96 00                STX $00,Y
224F   41 96                EOR ($96,X)
2251   00                   BRK
2252   41 96                EOR ($96,X)
2254   00                   BRK
2255   81 14                STA ($14,X)
2257   00                   BRK
2258   81 13                STA ($13,X)
225A   00                   BRK
225B   81 12                STA ($12,X)
225D   00                   BRK
225E   81 0F                STA ($0F,X)
2260   00                   BRK
2261   80                   ???
2262   0E 00 80             ASL $8000
2265   0A                   ASL A
2266   00                   BRK
2267   80                   ???
2268   0A                   ASL A
2269   00                   BRK
226A   80                   ???
226B   00                   BRK
226C   00                   BRK
226D   FF                   ???
226E   08                   PHP
226F   A5 00                LDA $00
2271   00                   BRK
2272   00                   BRK
2273   80                   ???
2274   14                   ???
2275   00                   BRK
2276   81 14                STA ($14,X)
2278   00                   BRK
2279   81 64                STA ($64,X)
227B   00                   BRK
227C   81 14                STA ($14,X)
227E   00                   BRK
227F   81 64                STA ($64,X)
2281   00                   BRK
2282   81 14                STA ($14,X)
2284   00                   BRK
2285   81 64                STA ($64,X)
2287   00                   BRK
2288   81 14                STA ($14,X)
228A   00                   BRK
228B   81 64                STA ($64,X)
228D   00                   BRK
228E   81 14                STA ($14,X)
2290   00                   BRK
2291   81 64                STA ($64,X)
2293   00                   BRK
2294   81 14                STA ($14,X)
2296   00                   BRK
2297   81 64                STA ($64,X)
2299   00                   BRK
229A   80                   ???
229B   14                   ???
229C   00                   BRK
229D   80                   ???
229E   64                   ???
229F   00                   BRK
22A0   80                   ???
22A1   14                   ???
22A2   00                   BRK
22A3   FF                   ???
22A4   08                   PHP
22A5   A0 02                LDY #$02
22A7   02                   ???
22A8   00                   BRK
22A9   40                   RTI
22AA   14                   ???
22AB   00                   BRK
22AC   41 14                EOR ($14,X)
22AE   00                   BRK
22AF   81 64                STA ($64,X)
22B1   00                   BRK
22B2   41 28                EOR ($28,X)
22B4   00                   BRK
22B5   81 64                STA ($64,X)
22B7   00                   BRK
22B8   41 3C                EOR ($3C,X)
22BA   00                   BRK
22BB   81 64                STA ($64,X)
22BD   00                   BRK
22BE   41 50                EOR ($50,X)
22C0   00                   BRK
22C1   81 64                STA ($64,X)
22C3   00                   BRK
22C4   41 64                EOR ($64,X)
22C6   00                   BRK
22C7   81 64                STA ($64,X)
22C9   00                   BRK
22CA   41 78                EOR ($78,X)
22CC   00                   BRK
22CD   81 64                STA ($64,X)
22CF   00                   BRK
22D0   40                   RTI
22D1   8C 00 80             STY $8000
22D4   64                   ???
22D5   00                   BRK
22D6   40                   RTI
22D7   B4 00                LDY $00,X
22D9   80                   ???
22DA   64                   ???
22DB   00                   BRK
22DC   40                   RTI
22DD   C8                   INY
22DE   00                   BRK
22DF   FF                   ???
22E0   00                   BRK
22E1   FF                   ???
22E2   0C                   ???
22E3   C8                   INY
22E4   41 0C                EOR ($0C,X)
22E6   64                   ???
22E7   41 0C                EOR ($0C,X)
22E9   00                   BRK
22EA   41 0B                EOR ($0B,X)
22EC   C8                   INY
22ED   41 0B                EOR ($0B,X)
22EF   64                   ???
22F0   41 0B                EOR ($0B,X)
22F2   00                   BRK
22F3   00                   BRK
22F4   5B                   ???
22F5   73                   ???
22F6   CF                   ???
22F7   01 05                ORA ($05,X)
22F9   05 
22FA   AD F2 22   L22FA     LDA $22F2
22FD   D0 09                BNE $2308
22FF   AD F3 22             LDA $22F3
2302   F0 03                BEQ L2307
2304   4C AF CB             JMP $CBAF
2307   60         L2307     RTS
                            .END

;auto-generated symbols and labels
 L1000      $1000
 L1020      $1020
 L1037      $1037
 L1070      $1070
 L1072      $1072
 L1074      $1074
 L1076      $1076
 L1086      $1086
 L1457      $1457
 L1461      $1461
 L1594      $1594
 L1595      $1595
 L1596      $1596
 L1597      $1597
 L1598      $1598
 L1627      $1627
 L1629      $1629
 L1631      $1631
 L1633      $1633
 L1642      $1642
 L1647      $1647
 L1649      $1649
 L1882      $1882
 L1956      $1956
 L1997      $1997
 L2025      $2025
 L2081      $2081
 L2173      $2173
 L2196      $2196
 L2307      $2307
 L106C      $106C
 L106E      $106E
 L118D      $118D
 L121D      $121D
 L121E      $121E
 L126C      $126C
 L12C3      $12C3
 L12C8      $12C8
 L12BF      $12BF
 L145A      $145A
 L145B      $145B
 L145D      $145D
 L145E      $145E
 L15C5      $15C5
 L15CF      $15CF
 L15D1      $15D1
 L163D      $163D
 L163F      $163F
 L165E      $165E
 L168B      $168B
 L169A      $169A
 L16AC      $16AC
 L16B8      $16B8
 L16D2      $16D2
 L16D0      $16D0
 L17FB      $17FB
 L18BF      $18BF
 L21DE      $21DE
 L18CE      $18CE
 L21EC      $21EC
 L21FC      $21FC
 L192B      $192B
 L18F1      $18F1
 L190A      $190A
 L191E      $191E
 L197A      $197A
 L194B      $194B
 L196E      $196E
 L1A0E      $1A0E
 L199A      $199A
 L19A5      $19A5
 L19B9      $19B9
 L1A01      $1A01
 L19D6      $19D6
 L19E3      $19E3
 L19E8      $19E8
 L1A2B      $1A2B
 L1A2E      $1A2E
 L1ABD      $1ABD
 L1A39      $1A39
 L1A76      $1A76
 L1A57      $1A57
 L1A5C      $1A5C
 L1A81      $1A81
 L1A9B      $1A9B
 L1ABC      $1ABC
 L1AD1      $1AD1
 L1AF8      $1AF8
 L1AE4      $1AE4
 L1AF7      $1AF7
 L1B23      $1B23
 L1B33      $1B33
 L1D44      $1D44
 L1BB3      $1BB3
 L1B4A      $1B4A
 L1B54      $1B54
 L1DB4      $1DB4
 L1B68      $1B68
 L1B72      $1B72
 L1F4F      $1F4F
 L1B8D      $1B8D
 L1CC4      $1CC4
 L1D12      $1D12
 L1D7D      $1D7D
 L1BA3      $1BA3
 L1BBD      $1BBD
 L1C3D      $1C3D
 L1BD4      $1BD4
 L1BDE      $1BDE
 L1BF2      $1BF2
 L1E35      $1E35
 L1C30      $1C30
 L1BFC      $1BFC
 L1C17      $1C17
 L1C2D      $1C2D
 L1C45      $1C45
 L1C59      $1C59
 L1C5A      $1C5A
 L1C64      $1C64
 L1C78      $1C78
 L1C82      $1C82
 L1C9D      $1C9D
 L1CB3      $1CB3
 L1D0E      $1D0E
 L1CFF      $1CFF
 L1D04      $1D04
 L1D4E      $1D4E
 L1D78      $1D78
 L1D66      $1D66
 L1DA2      $1DA2
 L1DDB      $1DDB
 L1DD6      $1DD6
 L1E04      $1E04
 L1DF3      $1DF3
 L1DEE      $1DEE
 L1E02      $1E02
 L1E2F      $1E2F
 L1E34      $1E34
 L1E46      $1E46
 L1EDE      $1EDE
 L1EAE      $1EAE
 L1F4B      $1F4B
 L1F16      $1F16
 L1F31      $1F31
 L1F29      $1F29
 L1F79      $1F79
 L18B9      $18B9
 L1F88      $1F88
 L20F1      $20F1
 L1FD8      $1FD8
 L205B      $205B
 L1E0F      $1E0F
 L21A3      $21A3
 L1B1D      $1B1D
 L1ABE      $1ABE
 L18BB      $18BB
 L21DA      $21DA
 L1EF3      $1EF3
 L22FA      $22FA
